target datalayout = "e-m:e-p270:32:32-p271:32:32-p272:64:64-i64:64-f80:128-n8:16:32:64-S128"
target triple = "x86_64-pc-linux-gnu"

%struct.student = type { i32, i32, i32, i32, %struct.student* }

@.str = private unnamed_addr constant [3 x i8] c"%d\00", align 1
@.str.1 = private unnamed_addr constant [9 x i8] c"%d %d %d\00", align 1
@.str.2 = private unnamed_addr constant [7 x i8] c"%d %d\0A\00", align 1

; Function Attrs: noinline nounwind uwtable
define dso_local void @main() #0 {
  %1 = alloca i32, align 4
  %2 = alloca i32, align 4
  %3 = alloca i32, align 4
  %4 = alloca i32, align 4
  %5 = alloca i32, align 4
  %6 = alloca i32, align 4
  %7 = alloca %struct.student*, align 8
  %8 = alloca %struct.student*, align 8
  %9 = alloca %struct.student*, align 8
  %10 = call i32 (i8*, ...) @__isoc99_scanf(i8* getelementptr inbounds ([3 x i8], [3 x i8]* @.str, i64 0, i64 0), i32* %4)
  %11 = call noalias i8* @malloc(i64 24) #3
  %12 = bitcast i8* %11 to %struct.student*
  store %struct.student* %12, %struct.student** %8, align 8
  store %struct.student* %12, %struct.student** %7, align 8
  store %struct.student* %12, %struct.student** %9, align 8
  %13 = load %struct.student*, %struct.student** %7, align 8
  %14 = getelementptr inbounds %struct.student, %struct.student* %13, i32 0, i32 0
  %15 = load %struct.student*, %struct.student** %7, align 8
  %16 = getelementptr inbounds %struct.student, %struct.student* %15, i32 0, i32 1
  %17 = load %struct.student*, %struct.student** %7, align 8
  %18 = getelementptr inbounds %struct.student, %struct.student* %17, i32 0, i32 2
  %19 = call i32 (i8*, ...) @__isoc99_scanf(i8* getelementptr inbounds ([9 x i8], [9 x i8]* @.str.1, i64 0, i64 0), i32* %14, i32* %16, i32* %18)
  %20 = load %struct.student*, %struct.student** %7, align 8
  %21 = getelementptr inbounds %struct.student, %struct.student* %20, i32 0, i32 1
  %22 = load i32, i32* %21, align 4
  %23 = load %struct.student*, %struct.student** %7, align 8
  %24 = getelementptr inbounds %struct.student, %struct.student* %23, i32 0, i32 2
  %25 = load i32, i32* %24, align 8
  %26 = add nsw i32 %22, %25
  %27 = load %struct.student*, %struct.student** %7, align 8
  %28 = getelementptr inbounds %struct.student, %struct.student* %27, i32 0, i32 3
  store i32 %26, i32* %28, align 4
  store i32 2, i32* %1, align 4
  br label %29

29:                                               ; preds = %63, %0
  %30 = load i32, i32* %1, align 4
  %31 = load i32, i32* %4, align 4
  %32 = icmp sle i32 %30, %31
  br i1 %32, label %33, label %66

33:                                               ; preds = %29
  %34 = call noalias i8* @malloc(i64 24) #3
  %35 = bitcast i8* %34 to %struct.student*
  store %struct.student* %35, %struct.student** %7, align 8
  %36 = load %struct.student*, %struct.student** %7, align 8
  %37 = getelementptr inbounds %struct.student, %struct.student* %36, i32 0, i32 0
  %38 = load %struct.student*, %struct.student** %7, align 8
  %39 = getelementptr inbounds %struct.student, %struct.student* %38, i32 0, i32 1
  %40 = load %struct.student*, %struct.student** %7, align 8
  %41 = getelementptr inbounds %struct.student, %struct.student* %40, i32 0, i32 2
  %42 = call i32 (i8*, ...) @__isoc99_scanf(i8* getelementptr inbounds ([9 x i8], [9 x i8]* @.str.1, i64 0, i64 0), i32* %37, i32* %39, i32* %41)
  %43 = load %struct.student*, %struct.student** %7, align 8
  %44 = getelementptr inbounds %struct.student, %struct.student* %43, i32 0, i32 1
  %45 = load i32, i32* %44, align 4
  %46 = load %struct.student*, %struct.student** %7, align 8
  %47 = getelementptr inbounds %struct.student, %struct.student* %46, i32 0, i32 2
  %48 = load i32, i32* %47, align 8
  %49 = add nsw i32 %45, %48
  %50 = load %struct.student*, %struct.student** %7, align 8
  %51 = getelementptr inbounds %struct.student, %struct.student* %50, i32 0, i32 3
  store i32 %49, i32* %51, align 4
  %52 = load %struct.student*, %struct.student** %7, align 8
  %53 = load %struct.student*, %struct.student** %8, align 8
  %54 = getelementptr inbounds %struct.student, %struct.student* %53, i32 0, i32 4
  store %struct.student* %52, %struct.student** %54, align 8
  %55 = load %struct.student*, %struct.student** %7, align 8
  store %struct.student* %55, %struct.student** %8, align 8
  %56 = load i32, i32* %1, align 4
  %57 = load i32, i32* %4, align 4
  %58 = icmp eq i32 %56, %57
  br i1 %58, label %59, label %62

59:                                               ; preds = %33
  %60 = load %struct.student*, %struct.student** %7, align 8
  %61 = getelementptr inbounds %struct.student, %struct.student* %60, i32 0, i32 4
  store %struct.student* null, %struct.student** %61, align 8
  br label %62

62:                                               ; preds = %59, %33
  br label %63

63:                                               ; preds = %62
  %64 = load i32, i32* %1, align 4
  %65 = add nsw i32 %64, 1
  store i32 %65, i32* %1, align 4
  br label %29

66:                                               ; preds = %29
  %67 = load %struct.student*, %struct.student** %9, align 8
  store %struct.student* %67, %struct.student** %7, align 8
  store i32 1, i32* %1, align 4
  br label %68

68:                                               ; preds = %127, %66
  %69 = load i32, i32* %1, align 4
  %70 = icmp sle i32 %69, 3
  br i1 %70, label %71, label %130

71:                                               ; preds = %68
  %72 = load %struct.student*, %struct.student** %9, align 8
  store %struct.student* %72, %struct.student** %7, align 8
  store i32 0, i32* %6, align 4
  store i32 1, i32* %2, align 4
  br label %73

73:                                               ; preds = %94, %71
  %74 = load i32, i32* %2, align 4
  %75 = load i32, i32* %4, align 4
  %76 = icmp sle i32 %74, %75
  br i1 %76, label %77, label %97

77:                                               ; preds = %73
  %78 = load i32, i32* %6, align 4
  %79 = load %struct.student*, %struct.student** %7, align 8
  %80 = getelementptr inbounds %struct.student, %struct.student* %79, i32 0, i32 3
  %81 = load i32, i32* %80, align 4
  %82 = icmp sgt i32 %78, %81
  br i1 %82, label %83, label %85

83:                                               ; preds = %77
  %84 = load i32, i32* %6, align 4
  br label %89

85:                                               ; preds = %77
  %86 = load %struct.student*, %struct.student** %7, align 8
  %87 = getelementptr inbounds %struct.student, %struct.student* %86, i32 0, i32 3
  %88 = load i32, i32* %87, align 4
  br label %89

89:                                               ; preds = %85, %83
  %90 = phi i32 [ %84, %83 ], [ %88, %85 ]
  store i32 %90, i32* %6, align 4
  %91 = load %struct.student*, %struct.student** %7, align 8
  %92 = getelementptr inbounds %struct.student, %struct.student* %91, i32 0, i32 4
  %93 = load %struct.student*, %struct.student** %92, align 8
  store %struct.student* %93, %struct.student** %7, align 8
  br label %94

94:                                               ; preds = %89
  %95 = load i32, i32* %2, align 4
  %96 = add nsw i32 %95, 1
  store i32 %96, i32* %2, align 4
  br label %73

97:                                               ; preds = %73
  %98 = load %struct.student*, %struct.student** %9, align 8
  store %struct.student* %98, %struct.student** %7, align 8
  store i32 1, i32* %2, align 4
  br label %99

99:                                               ; preds = %123, %97
  %100 = load i32, i32* %2, align 4
  %101 = load i32, i32* %4, align 4
  %102 = icmp sle i32 %100, %101
  br i1 %102, label %103, label %126

103:                                              ; preds = %99
  %104 = load %struct.student*, %struct.student** %7, align 8
  %105 = getelementptr inbounds %struct.student, %struct.student* %104, i32 0, i32 3
  %106 = load i32, i32* %105, align 4
  %107 = load i32, i32* %6, align 4
  %108 = icmp eq i32 %106, %107
  br i1 %108, label %109, label %119

109:                                              ; preds = %103
  %110 = load %struct.student*, %struct.student** %7, align 8
  %111 = getelementptr inbounds %struct.student, %struct.student* %110, i32 0, i32 0
  %112 = load i32, i32* %111, align 8
  %113 = load %struct.student*, %struct.student** %7, align 8
  %114 = getelementptr inbounds %struct.student, %struct.student* %113, i32 0, i32 3
  %115 = load i32, i32* %114, align 4
  %116 = call i32 (i8*, ...) @printf(i8* getelementptr inbounds ([7 x i8], [7 x i8]* @.str.2, i64 0, i64 0), i32 %112, i32 %115)
  %117 = load %struct.student*, %struct.student** %7, align 8
  %118 = getelementptr inbounds %struct.student, %struct.student* %117, i32 0, i32 3
  store i32 0, i32* %118, align 4
  br label %126

119:                                              ; preds = %103
  %120 = load %struct.student*, %struct.student** %7, align 8
  %121 = getelementptr inbounds %struct.student, %struct.student* %120, i32 0, i32 4
  %122 = load %struct.student*, %struct.student** %121, align 8
  store %struct.student* %122, %struct.student** %7, align 8
  br label %123

123:                                              ; preds = %119
  %124 = load i32, i32* %2, align 4
  %125 = add nsw i32 %124, 1
  store i32 %125, i32* %2, align 4
  br label %99

126:                                              ; preds = %109, %99
  br label %127

127:                                              ; preds = %126
  %128 = load i32, i32* %1, align 4
  %129 = add nsw i32 %128, 1
  store i32 %129, i32* %1, align 4
  br label %68

130:                                              ; preds = %68
  ret void
}